target datalayout = "e-m:e-p270:32:32-p271:32:32-p272:64:64-i64:64-i128:128-f80:128-n8:16:32:64-S128"
target triple = "x86_64-pc-linux-gnu"

; Function Attrs: mustprogress uwtable
define noundef ptr @_ZN4base10FileToFILEENS_4FileEPKc(ptr noundef %0, ptr noundef %1) #0 {
  %3 = alloca ptr, align 8
  %4 = alloca ptr, align 8
  %5 = alloca ptr, align 8
  store ptr %0, ptr %3, align 8, !tbaa !99
  store ptr %1, ptr %4, align 8, !tbaa !12
  call void @llvm.lifetime.start.p0(i64 8, ptr %5) #10
  %6 = call noundef i32 @_ZNK4base4File15GetPlatformFileEv(ptr noundef nonnull align 8 dereferenceable(50) %0)
  %7 = load ptr, ptr %4, align 8, !tbaa !12
  %8 = call noalias ptr @fdopen(i32 noundef %6, ptr noundef %7) #10
  store ptr %8, ptr %5, align 8, !tbaa !83
  %9 = load ptr, ptr %5, align 8, !tbaa !83
  %10 = icmp ne ptr %9, null
  br i1 %10, label %11, label %13

11:                                               ; preds = %2
  %12 = call noundef i32 @_ZN4base4File16TakePlatformFileEv(ptr noundef nonnull align 8 dereferenceable(50) %0)
  br label %13

13:                                               ; preds = %11, %2
  %14 = load ptr, ptr %5, align 8, !tbaa !83
  call void @llvm.lifetime.end.p0(i64 8, ptr %5) #10
  ret ptr %14
}