; Function Attrs: mustprogress uwtable
define noalias noundef ptr @_ZN4base10FileToFILEENS_4FileEPKc(ptr noundef nonnull %0, ptr noundef readonly captures(none) %1) local_unnamed_addr #0 {
  %3 = tail call noundef i32 @_ZNK4base4File15GetPlatformFileEv(ptr noundef nonnull align 8 dereferenceable(50) %0)
  %4 = tail call noalias ptr @fdopen(i32 noundef %3, ptr noundef %1) #24
  %.not = icmp eq ptr %4, null
  br i1 %.not, label %7, label %5

5:                                                ; preds = %2
  %6 = tail call noundef i32 @_ZN4base4File16TakePlatformFileEv(ptr noundef nonnull align 8 dereferenceable(50) %0)
  br label %7

7:                                                ; preds = %5, %2
  ret ptr %4
}